target datalayout = "e-m:e-p270:32:32-p271:32:32-p272:64:64-i64:64-i128:128-f80:128-n8:16:32:64-S128"
target triple = "x86_64-pc-linux-gnu"

%struct._zend_refcounted_h = type { i32, %union.anon.3 }
%union.anon.3 = type { i32 }
%struct._zend_string = type { %struct._zend_refcounted_h, i64, i64, [1 x i8] }

; Function Attrs: nounwind uwtable
define ptr @zend_throw_exception(ptr noundef %0, ptr noundef %1, i64 noundef %2) #0 {
  %4 = alloca ptr, align 8
  %5 = alloca i32, align 4
  %6 = alloca i64, align 8
  %7 = alloca i8, align 1
  %8 = alloca ptr, align 8
  %9 = alloca i32, align 4
  %10 = alloca i32, align 4
  %11 = alloca ptr, align 8
  %12 = alloca ptr, align 8
  %13 = alloca ptr, align 8
  %14 = alloca i64, align 8
  %15 = alloca i8, align 1
  %16 = alloca ptr, align 8
  %17 = alloca ptr, align 8
  %18 = alloca ptr, align 8
  %19 = alloca i64, align 8
  %20 = alloca ptr, align 8
  %21 = alloca ptr, align 8
  store ptr %0, ptr %17, align 8
  store ptr %1, ptr %18, align 8
  store i64 %2, ptr %19, align 8
  %22 = load ptr, ptr %18, align 8
  %23 = icmp ne ptr %22, null
  br i1 %23, label %24, label %472

24:                                               ; preds = %3
  %25 = load ptr, ptr %18, align 8
  %26 = load ptr, ptr %18, align 8
  %27 = call i64 @strlen(ptr noundef %26) #14
  store ptr %25, ptr %13, align 8
  store i64 %27, ptr %14, align 8
  store i8 0, ptr %15, align 1
  %28 = load i64, ptr %14, align 8
  %29 = load i8, ptr %15, align 1
  %30 = trunc i8 %29 to i1
  store i64 %28, ptr %6, align 8
  %31 = zext i1 %30 to i8
  store i8 %31, ptr %7, align 1
  %32 = load i8, ptr %7, align 1
  %33 = trunc i8 %32 to i1
  br i1 %33, label %34, label %42

34:                                               ; preds = %24
  %35 = load i64, ptr %6, align 8
  %36 = add i64 24, %35
  %37 = add i64 %36, 1
  %38 = add i64 %37, 8
  %39 = sub i64 %38, 1
  %40 = and i64 %39, -8
  %41 = call noalias ptr @__zend_malloc(i64 noundef %40) #15
  br label %446

42:                                               ; preds = %24
  %43 = load i64, ptr %6, align 8
  %44 = add i64 24, %43
  %45 = add i64 %44, 1
  %46 = add i64 %45, 8
  %47 = sub i64 %46, 1
  %48 = and i64 %47, -8
  %49 = call i1 @llvm.is.constant.i64(i64 %48)
  br i1 %49, label %50, label %436

50:                                               ; preds = %42
  %51 = load i64, ptr %6, align 8
  %52 = add i64 24, %51
  %53 = add i64 %52, 1
  %54 = add i64 %53, 8
  %55 = sub i64 %54, 1
  %56 = and i64 %55, -8
  %57 = icmp ule i64 %56, 8
  br i1 %57, label %58, label %60

58:                                               ; preds = %50
  %59 = call noalias ptr @_emalloc_8() #12
  br label %434

60:                                               ; preds = %50
  %61 = load i64, ptr %6, align 8
  %62 = add i64 24, %61
  %63 = add i64 %62, 1
  %64 = add i64 %63, 8
  %65 = sub i64 %64, 1
  %66 = and i64 %65, -8
  %67 = icmp ule i64 %66, 16
  br i1 %67, label %68, label %70

68:                                               ; preds = %60
  %69 = call noalias ptr @_emalloc_16() #12
  br label %432

70:                                               ; preds = %60
  %71 = load i64, ptr %6, align 8
  %72 = add i64 24, %71
  %73 = add i64 %72, 1
  %74 = add i64 %73, 8
  %75 = sub i64 %74, 1
  %76 = and i64 %75, -8
  %77 = icmp ule i64 %76, 24
  br i1 %77, label %78, label %80

78:                                               ; preds = %70
  %79 = call noalias ptr @_emalloc_24() #12
  br label %430

80:                                               ; preds = %70
  %81 = load i64, ptr %6, align 8
  %82 = add i64 24, %81
  %83 = add i64 %82, 1
  %84 = add i64 %83, 8
  %85 = sub i64 %84, 1
  %86 = and i64 %85, -8
  %87 = icmp ule i64 %86, 32
  br i1 %87, label %88, label %90

88:                                               ; preds = %80
  %89 = call noalias ptr @_emalloc_32() #12
  br label %428

90:                                               ; preds = %80
  %91 = load i64, ptr %6, align 8
  %92 = add i64 24, %91
  %93 = add i64 %92, 1
  %94 = add i64 %93, 8
  %95 = sub i64 %94, 1
  %96 = and i64 %95, -8
  %97 = icmp ule i64 %96, 40
  br i1 %97, label %98, label %100

98:                                               ; preds = %90
  %99 = call noalias ptr @_emalloc_40() #12
  br label %426

100:                                              ; preds = %90
  %101 = load i64, ptr %6, align 8
  %102 = add i64 24, %101
  %103 = add i64 %102, 1
  %104 = add i64 %103, 8
  %105 = sub i64 %104, 1
  %106 = and i64 %105, -8
  %107 = icmp ule i64 %106, 48
  br i1 %107, label %108, label %110

108:                                              ; preds = %100
  %109 = call noalias ptr @_emalloc_48() #12
  br label %424

110:                                              ; preds = %100
  %111 = load i64, ptr %6, align 8
  %112 = add i64 24, %111
  %113 = add i64 %112, 1
  %114 = add i64 %113, 8
  %115 = sub i64 %114, 1
  %116 = and i64 %115, -8
  %117 = icmp ule i64 %116, 56
  br i1 %117, label %118, label %120

118:                                              ; preds = %110
  %119 = call noalias ptr @_emalloc_56() #12
  br label %422

120:                                              ; preds = %110
  %121 = load i64, ptr %6, align 8
  %122 = add i64 24, %121
  %123 = add i64 %122, 1
  %124 = add i64 %123, 8
  %125 = sub i64 %124, 1
  %126 = and i64 %125, -8
  %127 = icmp ule i64 %126, 64
  br i1 %127, label %128, label %130

128:                                              ; preds = %120
  %129 = call noalias ptr @_emalloc_64() #12
  br label %420

130:                                              ; preds = %120
  %131 = load i64, ptr %6, align 8
  %132 = add i64 24, %131
  %133 = add i64 %132, 1
  %134 = add i64 %133, 8
  %135 = sub i64 %134, 1
  %136 = and i64 %135, -8
  %137 = icmp ule i64 %136, 80
  br i1 %137, label %138, label %140

138:                                              ; preds = %130
  %139 = call noalias ptr @_emalloc_80() #12
  br label %418

140:                                              ; preds = %130
  %141 = load i64, ptr %6, align 8
  %142 = add i64 24, %141
  %143 = add i64 %142, 1
  %144 = add i64 %143, 8
  %145 = sub i64 %144, 1
  %146 = and i64 %145, -8
  %147 = icmp ule i64 %146, 96
  br i1 %147, label %148, label %150

148:                                              ; preds = %140
  %149 = call noalias ptr @_emalloc_96() #12
  br label %416

150:                                              ; preds = %140
  %151 = load i64, ptr %6, align 8
  %152 = add i64 24, %151
  %153 = add i64 %152, 1
  %154 = add i64 %153, 8
  %155 = sub i64 %154, 1
  %156 = and i64 %155, -8
  %157 = icmp ule i64 %156, 112
  br i1 %157, label %158, label %160

158:                                              ; preds = %150
  %159 = call noalias ptr @_emalloc_112() #12
  br label %414

160:                                              ; preds = %150
  %161 = load i64, ptr %6, align 8
  %162 = add i64 24, %161
  %163 = add i64 %162, 1
  %164 = add i64 %163, 8
  %165 = sub i64 %164, 1
  %166 = and i64 %165, -8
  %167 = icmp ule i64 %166, 128
  br i1 %167, label %168, label %170

168:                                              ; preds = %160
  %169 = call noalias ptr @_emalloc_128() #12
  br label %412

170:                                              ; preds = %160
  %171 = load i64, ptr %6, align 8
  %172 = add i64 24, %171
  %173 = add i64 %172, 1
  %174 = add i64 %173, 8
  %175 = sub i64 %174, 1
  %176 = and i64 %175, -8
  %177 = icmp ule i64 %176, 160
  br i1 %177, label %178, label %180

178:                                              ; preds = %170
  %179 = call noalias ptr @_emalloc_160() #12
  br label %410

180:                                              ; preds = %170
  %181 = load i64, ptr %6, align 8
  %182 = add i64 24, %181
  %183 = add i64 %182, 1
  %184 = add i64 %183, 8
  %185 = sub i64 %184, 1
  %186 = and i64 %185, -8
  %187 = icmp ule i64 %186, 192
  br i1 %187, label %188, label %190

188:                                              ; preds = %180
  %189 = call noalias ptr @_emalloc_192() #12
  br label %408

190:                                              ; preds = %180
  %191 = load i64, ptr %6, align 8
  %192 = add i64 24, %191
  %193 = add i64 %192, 1
  %194 = add i64 %193, 8
  %195 = sub i64 %194, 1
  %196 = and i64 %195, -8
  %197 = icmp ule i64 %196, 224
  br i1 %197, label %198, label %200

198:                                              ; preds = %190
  %199 = call noalias ptr @_emalloc_224() #12
  br label %406

200:                                              ; preds = %190
  %201 = load i64, ptr %6, align 8
  %202 = add i64 24, %201
  %203 = add i64 %202, 1
  %204 = add i64 %203, 8
  %205 = sub i64 %204, 1
  %206 = and i64 %205, -8
  %207 = icmp ule i64 %206, 256
  br i1 %207, label %208, label %210

208:                                              ; preds = %200
  %209 = call noalias ptr @_emalloc_256() #12
  br label %404

210:                                              ; preds = %200
  %211 = load i64, ptr %6, align 8
  %212 = add i64 24, %211
  %213 = add i64 %212, 1
  %214 = add i64 %213, 8
  %215 = sub i64 %214, 1
  %216 = and i64 %215, -8
  %217 = icmp ule i64 %216, 320
  br i1 %217, label %218, label %220

218:                                              ; preds = %210
  %219 = call noalias ptr @_emalloc_320() #12
  br label %402

220:                                              ; preds = %210
  %221 = load i64, ptr %6, align 8
  %222 = add i64 24, %221
  %223 = add i64 %222, 1
  %224 = add i64 %223, 8
  %225 = sub i64 %224, 1
  %226 = and i64 %225, -8
  %227 = icmp ule i64 %226, 384
  br i1 %227, label %228, label %230

228:                                              ; preds = %220
  %229 = call noalias ptr @_emalloc_384() #12
  br label %400

230:                                              ; preds = %220
  %231 = load i64, ptr %6, align 8
  %232 = add i64 24, %231
  %233 = add i64 %232, 1
  %234 = add i64 %233, 8
  %235 = sub i64 %234, 1
  %236 = and i64 %235, -8
  %237 = icmp ule i64 %236, 448
  br i1 %237, label %238, label %240

238:                                              ; preds = %230
  %239 = call noalias ptr @_emalloc_448() #12
  br label %398

240:                                              ; preds = %230
  %241 = load i64, ptr %6, align 8
  %242 = add i64 24, %241
  %243 = add i64 %242, 1
  %244 = add i64 %243, 8
  %245 = sub i64 %244, 1
  %246 = and i64 %245, -8
  %247 = icmp ule i64 %246, 512
  br i1 %247, label %248, label %250

248:                                              ; preds = %240
  %249 = call noalias ptr @_emalloc_512() #12
  br label %396

250:                                              ; preds = %240
  %251 = load i64, ptr %6, align 8
  %252 = add i64 24, %251
  %253 = add i64 %252, 1
  %254 = add i64 %253, 8
  %255 = sub i64 %254, 1
  %256 = and i64 %255, -8
  %257 = icmp ule i64 %256, 640
  br i1 %257, label %258, label %260

258:                                              ; preds = %250
  %259 = call noalias ptr @_emalloc_640() #12
  br label %394

260:                                              ; preds = %250
  %261 = load i64, ptr %6, align 8
  %262 = add i64 24, %261
  %263 = add i64 %262, 1
  %264 = add i64 %263, 8
  %265 = sub i64 %264, 1
  %266 = and i64 %265, -8
  %267 = icmp ule i64 %266, 768
  br i1 %267, label %268, label %270

268:                                              ; preds = %260
  %269 = call noalias ptr @_emalloc_768() #12
  br label %392

270:                                              ; preds = %260
  %271 = load i64, ptr %6, align 8
  %272 = add i64 24, %271
  %273 = add i64 %272, 1
  %274 = add i64 %273, 8
  %275 = sub i64 %274, 1
  %276 = and i64 %275, -8
  %277 = icmp ule i64 %276, 896
  br i1 %277, label %278, label %280

278:                                              ; preds = %270
  %279 = call noalias ptr @_emalloc_896() #12
  br label %390

280:                                              ; preds = %270
  %281 = load i64, ptr %6, align 8
  %282 = add i64 24, %281
  %283 = add i64 %282, 1
  %284 = add i64 %283, 8
  %285 = sub i64 %284, 1
  %286 = and i64 %285, -8
  %287 = icmp ule i64 %286, 1024
  br i1 %287, label %288, label %290

288:                                              ; preds = %280
  %289 = call noalias ptr @_emalloc_1024() #12
  br label %388

290:                                              ; preds = %280
  %291 = load i64, ptr %6, align 8
  %292 = add i64 24, %291
  %293 = add i64 %292, 1
  %294 = add i64 %293, 8
  %295 = sub i64 %294, 1
  %296 = and i64 %295, -8
  %297 = icmp ule i64 %296, 1280
  br i1 %297, label %298, label %300

298:                                              ; preds = %290
  %299 = call noalias ptr @_emalloc_1280() #12
  br label %386

300:                                              ; preds = %290
  %301 = load i64, ptr %6, align 8
  %302 = add i64 24, %301
  %303 = add i64 %302, 1
  %304 = add i64 %303, 8
  %305 = sub i64 %304, 1
  %306 = and i64 %305, -8
  %307 = icmp ule i64 %306, 1536
  br i1 %307, label %308, label %310

308:                                              ; preds = %300
  %309 = call noalias ptr @_emalloc_1536() #12
  br label %384

310:                                              ; preds = %300
  %311 = load i64, ptr %6, align 8
  %312 = add i64 24, %311
  %313 = add i64 %312, 1
  %314 = add i64 %313, 8
  %315 = sub i64 %314, 1
  %316 = and i64 %315, -8
  %317 = icmp ule i64 %316, 1792
  br i1 %317, label %318, label %320

318:                                              ; preds = %310
  %319 = call noalias ptr @_emalloc_1792() #12
  br label %382

320:                                              ; preds = %310
  %321 = load i64, ptr %6, align 8
  %322 = add i64 24, %321
  %323 = add i64 %322, 1
  %324 = add i64 %323, 8
  %325 = sub i64 %324, 1
  %326 = and i64 %325, -8
  %327 = icmp ule i64 %326, 2048
  br i1 %327, label %328, label %330

328:                                              ; preds = %320
  %329 = call noalias ptr @_emalloc_2048() #12
  br label %380

330:                                              ; preds = %320
  %331 = load i64, ptr %6, align 8
  %332 = add i64 24, %331
  %333 = add i64 %332, 1
  %334 = add i64 %333, 8
  %335 = sub i64 %334, 1
  %336 = and i64 %335, -8
  %337 = icmp ule i64 %336, 2560
  br i1 %337, label %338, label %340

338:                                              ; preds = %330
  %339 = call noalias ptr @_emalloc_2560() #12
  br label %378

340:                                              ; preds = %330
  %341 = load i64, ptr %6, align 8
  %342 = add i64 24, %341
  %343 = add i64 %342, 1
  %344 = add i64 %343, 8
  %345 = sub i64 %344, 1
  %346 = and i64 %345, -8
  %347 = icmp ule i64 %346, 3072
  br i1 %347, label %348, label %350

348:                                              ; preds = %340
  %349 = call noalias ptr @_emalloc_3072() #12
  br label %376

350:                                              ; preds = %340
  %351 = load i64, ptr %6, align 8
  %352 = add i64 24, %351
  %353 = add i64 %352, 1
  %354 = add i64 %353, 8
  %355 = sub i64 %354, 1
  %356 = and i64 %355, -8
  %357 = icmp ule i64 %356, 2093056
  br i1 %357, label %358, label %366

358:                                              ; preds = %350
  %359 = load i64, ptr %6, align 8
  %360 = add i64 24, %359
  %361 = add i64 %360, 1
  %362 = add i64 %361, 8
  %363 = sub i64 %362, 1
  %364 = and i64 %363, -8
  %365 = call noalias ptr @_emalloc_large(i64 noundef %364) #15
  br label %374

366:                                              ; preds = %350
  %367 = load i64, ptr %6, align 8
  %368 = add i64 24, %367
  %369 = add i64 %368, 1
  %370 = add i64 %369, 8
  %371 = sub i64 %370, 1
  %372 = and i64 %371, -8
  %373 = call noalias ptr @_emalloc_huge(i64 noundef %372) #15
  br label %374

374:                                              ; preds = %366, %358
  %375 = phi ptr [ %365, %358 ], [ %373, %366 ]
  br label %376

376:                                              ; preds = %374, %348
  %377 = phi ptr [ %349, %348 ], [ %375, %374 ]
  br label %378

378:                                              ; preds = %376, %338
  %379 = phi ptr [ %339, %338 ], [ %377, %376 ]
  br label %380

380:                                              ; preds = %378, %328
  %381 = phi ptr [ %329, %328 ], [ %379, %378 ]
  br label %382

382:                                              ; preds = %380, %318
  %383 = phi ptr [ %319, %318 ], [ %381, %380 ]
  br label %384

384:                                              ; preds = %382, %308
  %385 = phi ptr [ %309, %308 ], [ %383, %382 ]
  br label %386

386:                                              ; preds = %384, %298
  %387 = phi ptr [ %299, %298 ], [ %385, %384 ]
  br label %388

388:                                              ; preds = %386, %288
  %389 = phi ptr [ %289, %288 ], [ %387, %386 ]
  br label %390

390:                                              ; preds = %388, %278
  %391 = phi ptr [ %279, %278 ], [ %389, %388 ]
  br label %392

392:                                              ; preds = %390, %268
  %393 = phi ptr [ %269, %268 ], [ %391, %390 ]
  br label %394

394:                                              ; preds = %392, %258
  %395 = phi ptr [ %259, %258 ], [ %393, %392 ]
  br label %396

396:                                              ; preds = %394, %248
  %397 = phi ptr [ %249, %248 ], [ %395, %394 ]
  br label %398

398:                                              ; preds = %396, %238
  %399 = phi ptr [ %239, %238 ], [ %397, %396 ]
  br label %400

400:                                              ; preds = %398, %228
  %401 = phi ptr [ %229, %228 ], [ %399, %398 ]
  br label %402

402:                                              ; preds = %400, %218
  %403 = phi ptr [ %219, %218 ], [ %401, %400 ]
  br label %404

404:                                              ; preds = %402, %208
  %405 = phi ptr [ %209, %208 ], [ %403, %402 ]
  br label %406

406:                                              ; preds = %404, %198
  %407 = phi ptr [ %199, %198 ], [ %405, %404 ]
  br label %408

408:                                              ; preds = %406, %188
  %409 = phi ptr [ %189, %188 ], [ %407, %406 ]
  br label %410

410:                                              ; preds = %408, %178
  %411 = phi ptr [ %179, %178 ], [ %409, %408 ]
  br label %412

412:                                              ; preds = %410, %168
  %413 = phi ptr [ %169, %168 ], [ %411, %410 ]
  br label %414

414:                                              ; preds = %412, %158
  %415 = phi ptr [ %159, %158 ], [ %413, %412 ]
  br label %416

416:                                              ; preds = %414, %148
  %417 = phi ptr [ %149, %148 ], [ %415, %414 ]
  br label %418

418:                                              ; preds = %416, %138
  %419 = phi ptr [ %139, %138 ], [ %417, %416 ]
  br label %420

420:                                              ; preds = %418, %128
  %421 = phi ptr [ %129, %128 ], [ %419, %418 ]
  br label %422

422:                                              ; preds = %420, %118
  %423 = phi ptr [ %119, %118 ], [ %421, %420 ]
  br label %424

424:                                              ; preds = %422, %108
  %425 = phi ptr [ %109, %108 ], [ %423, %422 ]
  br label %426

426:                                              ; preds = %424, %98
  %427 = phi ptr [ %99, %98 ], [ %425, %424 ]
  br label %428

428:                                              ; preds = %426, %88
  %429 = phi ptr [ %89, %88 ], [ %427, %426 ]
  br label %430

430:                                              ; preds = %428, %78
  %431 = phi ptr [ %79, %78 ], [ %429, %428 ]
  br label %432

432:                                              ; preds = %430, %68
  %433 = phi ptr [ %69, %68 ], [ %431, %430 ]
  br label %434

434:                                              ; preds = %432, %58
  %435 = phi ptr [ %59, %58 ], [ %433, %432 ]
  br label %444

436:                                              ; preds = %42
  %437 = load i64, ptr %6, align 8
  %438 = add i64 24, %437
  %439 = add i64 %438, 1
  %440 = add i64 %439, 8
  %441 = sub i64 %440, 1
  %442 = and i64 %441, -8
  %443 = call noalias ptr @_emalloc(i64 noundef %442) #15
  br label %444

444:                                              ; preds = %436, %434
  %445 = phi ptr [ %435, %434 ], [ %443, %436 ]
  br label %446

446:                                              ; preds = %444, %34
  %447 = phi ptr [ %41, %34 ], [ %445, %444 ]
  store ptr %447, ptr %8, align 8
  %448 = load ptr, ptr %8, align 8
  store ptr %448, ptr %4, align 8
  store i32 1, ptr %5, align 4
  %449 = load i32, ptr %5, align 4
  %450 = load ptr, ptr %4, align 8
  store i32 %449, ptr %450, align 4
  %451 = load i8, ptr %7, align 1
  %452 = trunc i8 %451 to i1
  %453 = select i1 %452, i32 128, i32 0
  %454 = or i32 22, %453
  %455 = load ptr, ptr %8, align 8
  %456 = getelementptr inbounds %struct._zend_refcounted_h, ptr %455, i32 0, i32 1
  store i32 %454, ptr %456, align 4
  %457 = load ptr, ptr %8, align 8
  %458 = getelementptr inbounds %struct._zend_string, ptr %457, i32 0, i32 1
  store i64 0, ptr %458, align 8
  %459 = load i64, ptr %6, align 8
  %460 = load ptr, ptr %8, align 8
  %461 = getelementptr inbounds %struct._zend_string, ptr %460, i32 0, i32 2
  store i64 %459, ptr %461, align 8
  %462 = load ptr, ptr %8, align 8
  store ptr %462, ptr %16, align 8
  %463 = load ptr, ptr %16, align 8
  %464 = getelementptr inbounds %struct._zend_string, ptr %463, i32 0, i32 3
  %465 = load ptr, ptr %13, align 8
  %466 = load i64, ptr %14, align 8
  call void @llvm.memcpy.p0.p0.i64(ptr align 8 %464, ptr align 1 %465, i64 %466, i1 false)
  %467 = load ptr, ptr %16, align 8
  %468 = getelementptr inbounds %struct._zend_string, ptr %467, i32 0, i32 3
  %469 = load i64, ptr %14, align 8
  %470 = getelementptr inbounds [1 x i8], ptr %468, i64 0, i64 %469
  store i8 0, ptr %470, align 1
  %471 = load ptr, ptr %16, align 8
  br label %473

472:                                              ; preds = %3
  br label %473

473:                                              ; preds = %472, %446
  %474 = phi ptr [ %471, %446 ], [ null, %472 ]
  store ptr %474, ptr %20, align 8
  %475 = load ptr, ptr %17, align 8
  %476 = load ptr, ptr %20, align 8
  %477 = load i64, ptr %19, align 8
  %478 = call ptr @zend_throw_exception_zstr(ptr noundef %475, ptr noundef %476, i64 noundef %477)
  store ptr %478, ptr %21, align 8
  %479 = load ptr, ptr %20, align 8
  %480 = icmp ne ptr %479, null
  br i1 %480, label %481, label %514

481:                                              ; preds = %473
  %482 = load ptr, ptr %20, align 8
  store ptr %482, ptr %12, align 8
  %483 = load ptr, ptr %12, align 8
  %484 = getelementptr inbounds %struct._zend_refcounted_h, ptr %483, i32 0, i32 1
  %485 = load i32, ptr %484, align 4
  store i32 %485, ptr %9, align 4
  %486 = load i32, ptr %9, align 4
  %487 = and i32 %486, 1008
  %488 = and i32 %487, 64
  %489 = icmp ne i32 %488, 0
  br i1 %489, label %513, label %490

490:                                              ; preds = %481
  %491 = load ptr, ptr %12, align 8
  store ptr %491, ptr %11, align 8
  %492 = load ptr, ptr %11, align 8
  %493 = load i32, ptr %492, align 4
  %494 = icmp ugt i32 %493, 0
  call void @llvm.assume(i1 %494)
  %495 = load ptr, ptr %11, align 8
  %496 = load i32, ptr %495, align 4
  %497 = add i32 %496, -1
  store i32 %497, ptr %495, align 4
  %498 = icmp eq i32 %497, 0
  br i1 %498, label %499, label %512

499:                                              ; preds = %490
  %500 = load ptr, ptr %12, align 8
  %501 = getelementptr inbounds %struct._zend_refcounted_h, ptr %500, i32 0, i32 1
  %502 = load i32, ptr %501, align 4
  store i32 %502, ptr %10, align 4
  %503 = load i32, ptr %10, align 4
  %504 = and i32 %503, 1008
  %505 = and i32 %504, 128
  %506 = icmp ne i32 %505, 0
  br i1 %506, label %507, label %509

507:                                              ; preds = %499
  %508 = load ptr, ptr %12, align 8
  call void @free(ptr noundef %508) #12
  br label %511

509:                                              ; preds = %499
  %510 = load ptr, ptr %12, align 8
  call void @_efree(ptr noundef %510) #12
  br label %511

511:                                              ; preds = %509, %507
  br label %512

512:                                              ; preds = %511, %490
  br label %513

513:                                              ; preds = %512, %481
  br label %514

514:                                              ; preds = %513, %473
  %515 = load ptr, ptr %21, align 8
  ret ptr %515
}