; Function Attrs: nounwind uwtable
define ptr @zend_throw_exception(ptr noundef %0, ptr noundef readonly %1, i64 noundef %2) local_unnamed_addr #0 {
  %.not = icmp eq ptr %1, null
  br i1 %.not, label %.thread, label %5

.thread:                                          ; preds = %3
  %4 = tail call fastcc ptr @zend_throw_exception_zstr(ptr noundef %0, ptr noundef null, i64 noundef %2)
  br label %27

5:                                                ; preds = %3
  %6 = tail call i64 @strlen(ptr noundef nonnull dereferenceable(1) %1) #17
  %7 = and i64 %6, -8
  %8 = add i64 %7, 32
  %9 = tail call noalias ptr @_emalloc(i64 noundef %8) #18
  store i32 1, ptr %9, align 4
  %10 = getelementptr inbounds i8, ptr %9, i64 4
  store i32 22, ptr %10, align 4
  %11 = getelementptr inbounds i8, ptr %9, i64 8
  store i64 0, ptr %11, align 8
  %12 = getelementptr inbounds i8, ptr %9, i64 16
  store i64 %6, ptr %12, align 8
  %13 = getelementptr inbounds i8, ptr %9, i64 24
  tail call void @llvm.memcpy.p0.p0.i64(ptr nonnull align 8 %13, ptr nonnull align 1 %1, i64 %6, i1 false)
  %14 = getelementptr inbounds [1 x i8], ptr %13, i64 0, i64 %6
  store i8 0, ptr %14, align 1
  %15 = tail call fastcc ptr @zend_throw_exception_zstr(ptr noundef %0, ptr noundef nonnull %9, i64 noundef %2)
  %16 = load i32, ptr %10, align 4
  %17 = and i32 %16, 64
  %.not74 = icmp eq i32 %17, 0
  br i1 %.not74, label %18, label %27

18:                                               ; preds = %5
  %19 = load i32, ptr %9, align 4
  %20 = icmp ne i32 %19, 0
  tail call void @llvm.assume(i1 %20)
  %21 = add i32 %19, -1
  store i32 %21, ptr %9, align 4
  %22 = icmp eq i32 %21, 0
  br i1 %22, label %23, label %27

23:                                               ; preds = %18
  %24 = and i32 %16, 128
  %.not75 = icmp eq i32 %24, 0
  br i1 %.not75, label %26, label %25

25:                                               ; preds = %23
  tail call void @free(ptr noundef nonnull %9) #15
  br label %27

26:                                               ; preds = %23
  tail call void @_efree(ptr noundef nonnull %9) #15
  br label %27

27:                                               ; preds = %.thread, %5, %25, %26, %18
  %28 = phi ptr [ %4, %.thread ], [ %15, %5 ], [ %15, %25 ], [ %15, %26 ], [ %15, %18 ]
  ret ptr %28
}